target datalayout = "e-m:e-p270:32:32-p271:32:32-p272:64:64-i64:64-i128:128-f80:128-n8:16:32:64-S128"
target triple = "x86_64-pc-linux-gnu"

%struct.AVFormatContext = type { ptr, ptr, ptr, ptr, ptr, i32, i32, ptr, i32, ptr, i32, ptr, ptr, i64, i64, i64, i32, i32, i32, i64, i64, ptr, i32, i32, ptr, i32, i32, i32, i32, ptr, i64, i32, i32, %struct.AVIOInterruptCB, i32, i32, i32, i32, i64, i32, i32, i32, i32, i32, i32, i32, i32, i32, i32, i32, i32, i64, i32, i32, i32, i32, i32, ptr, ptr, ptr, ptr, i32, ptr, ptr, ptr, ptr, i32, ptr, ptr, i64, ptr, ptr, ptr, i64 }
%struct.AVIOInterruptCB = type { ptr, ptr }
%struct.HLSContext = type { ptr, i64, i32, i64, i64, i32, i32, i32, i32, ptr, ptr, i32, i32, i32, i32, i32, i64, i64, ptr, ptr, ptr, ptr, i32, ptr, ptr, ptr, ptr, i32, ptr, [4097 x i8], [4097 x i8], [33 x i8], [33 x i8], ptr, ptr, ptr, ptr, i32, ptr, i32, i32, ptr, i32, ptr, ptr, ptr, i32, i32, ptr, ptr, ptr, i64, i32, ptr, i32, i32 }
%struct.VariantStream = type { i32, i32, i64, ptr, ptr, ptr, ptr, i32, i32, ptr, ptr, ptr, ptr, i32, i32, i32, i32, double, i64, i64, i64, i64, i64, double, i64, i64, i32, i32, i32, i32, i64, double, i64, i64, ptr, ptr, ptr, ptr, ptr, ptr, ptr, ptr, double, [4096 x i8], ptr, ptr, i32, [4097 x i8], [4097 x i8], [33 x i8], [33 x i8], ptr, [128 x i8], i32, i32, i32, i32, ptr, ptr, ptr, ptr, ptr, ptr }

; Function Attrs: nounwind uwtable
define internal i32 @hls_init_file_resend(ptr noundef %0, ptr noundef %1) #0 {
  %3 = alloca i32, align 4
  %4 = alloca ptr, align 8
  %5 = alloca ptr, align 8
  %6 = alloca ptr, align 8
  %7 = alloca ptr, align 8
  %8 = alloca i32, align 4
  %9 = alloca i32, align 4
  store ptr %0, ptr %4, align 8, !tbaa !4
  store ptr %1, ptr %5, align 8, !tbaa !28
  call void @llvm.lifetime.start.p0(i64 8, ptr %6) #15
  %10 = load ptr, ptr %4, align 8, !tbaa !4
  %11 = getelementptr inbounds nuw %struct.AVFormatContext, ptr %10, i32 0, i32 3
  %12 = load ptr, ptr %11, align 8, !tbaa !9
  store ptr %12, ptr %6, align 8, !tbaa !26
  call void @llvm.lifetime.start.p0(i64 8, ptr %7) #15
  store ptr null, ptr %7, align 8, !tbaa !110
  call void @llvm.lifetime.start.p0(i64 4, ptr %8) #15
  store i32 0, ptr %8, align 4, !tbaa !30
  %13 = load ptr, ptr %4, align 8, !tbaa !4
  %14 = load ptr, ptr %6, align 8, !tbaa !26
  call void @set_http_options(ptr noundef %13, ptr noundef %7, ptr noundef %14)
  %15 = load ptr, ptr %4, align 8, !tbaa !4
  %16 = load ptr, ptr %5, align 8, !tbaa !28
  %17 = getelementptr inbounds nuw %struct.VariantStream, ptr %16, i32 0, i32 5
  %18 = load ptr, ptr %5, align 8, !tbaa !28
  %19 = getelementptr inbounds nuw %struct.VariantStream, ptr %18, i32 0, i32 45
  %20 = load ptr, ptr %19, align 8, !tbaa !105
  %21 = call i32 @hlsenc_io_open(ptr noundef %15, ptr noundef %17, ptr noundef %20, ptr noundef %7)
  store i32 %21, ptr %8, align 4, !tbaa !30
  call void @av_dict_free(ptr noundef %7)
  %22 = load i32, ptr %8, align 4, !tbaa !30
  %23 = icmp slt i32 %22, 0
  br i1 %23, label %24, label %26

24:                                               ; preds = %2
  %25 = load i32, ptr %8, align 4, !tbaa !30
  store i32 %25, ptr %3, align 4
  store i32 1, ptr %9, align 4
  br label %44

26:                                               ; preds = %2
  %27 = load ptr, ptr %5, align 8, !tbaa !28
  %28 = getelementptr inbounds nuw %struct.VariantStream, ptr %27, i32 0, i32 5
  %29 = load ptr, ptr %28, align 8, !tbaa !102
  %30 = load ptr, ptr %5, align 8, !tbaa !28
  %31 = getelementptr inbounds nuw %struct.VariantStream, ptr %30, i32 0, i32 10
  %32 = load ptr, ptr %31, align 8, !tbaa !103
  %33 = load ptr, ptr %5, align 8, !tbaa !28
  %34 = getelementptr inbounds nuw %struct.VariantStream, ptr %33, i32 0, i32 8
  %35 = load i32, ptr %34, align 4, !tbaa !101
  call void @avio_write(ptr noundef %29, ptr noundef %32, i32 noundef %35)
  %36 = load ptr, ptr %4, align 8, !tbaa !4
  %37 = load ptr, ptr %5, align 8, !tbaa !28
  %38 = getelementptr inbounds nuw %struct.VariantStream, ptr %37, i32 0, i32 5
  %39 = load ptr, ptr %6, align 8, !tbaa !26
  %40 = getelementptr inbounds nuw %struct.HLSContext, ptr %39, i32 0, i32 10
  %41 = load ptr, ptr %40, align 8, !tbaa !123
  %42 = call i32 @hlsenc_io_close(ptr noundef %36, ptr noundef %38, ptr noundef %41)
  %43 = load i32, ptr %8, align 4, !tbaa !30
  store i32 %43, ptr %3, align 4
  store i32 1, ptr %9, align 4
  br label %44

44:                                               ; preds = %26, %24
  call void @llvm.lifetime.end.p0(i64 4, ptr %8) #15
  call void @llvm.lifetime.end.p0(i64 8, ptr %7) #15
  call void @llvm.lifetime.end.p0(i64 8, ptr %6) #15
  %45 = load i32, ptr %3, align 4
  ret i32 %45
}