; Function Attrs: nounwind uwtable
define internal fastcc i32 @hls_init_file_resend(ptr noundef %0, ptr noundef %1) unnamed_addr #0 {
  %3 = alloca ptr, align 8
  %4 = getelementptr inbounds nuw i8, ptr %0, i64 24
  %5 = load ptr, ptr %4, align 8, !tbaa !4
  call void @llvm.lifetime.start.p0(i64 8, ptr nonnull %3) #17
  store ptr null, ptr %3, align 8, !tbaa !103
  %6 = getelementptr i8, ptr %0, i64 88
  %.val = load ptr, ptr %6, align 8, !tbaa !98
  call fastcc void @set_http_options(ptr %.val, ptr noundef %3, ptr noundef %5)
  %7 = getelementptr inbounds nuw i8, ptr %1, i64 32
  %8 = getelementptr inbounds nuw i8, ptr %1, i64 4400
  %9 = load ptr, ptr %8, align 8, !tbaa !97
  %10 = call fastcc i32 @hlsenc_io_open(ptr noundef %0, ptr noundef nonnull %7, ptr noundef %9, ptr noundef %3)
  call void @av_dict_free(ptr noundef nonnull %3) #17
  %11 = icmp slt i32 %10, 0
  br i1 %11, label %21, label %12

12:                                               ; preds = %2
  %13 = load ptr, ptr %7, align 8, !tbaa !94
  %14 = getelementptr inbounds nuw i8, ptr %1, i64 64
  %15 = load ptr, ptr %14, align 8, !tbaa !95
  %16 = getelementptr inbounds nuw i8, ptr %1, i64 52
  %17 = load i32, ptr %16, align 4, !tbaa !93
  call void @avio_write(ptr noundef %13, ptr noundef %15, i32 noundef %17) #17
  %18 = getelementptr inbounds nuw i8, ptr %5, i64 64
  %19 = load ptr, ptr %18, align 8, !tbaa !115
  %20 = call fastcc i32 @hlsenc_io_close(ptr noundef nonnull %0, ptr noundef nonnull %7, ptr noundef %19)
  br label %21

21:                                               ; preds = %2, %12
  call void @llvm.lifetime.end.p0(i64 8, ptr nonnull %3) #17
  ret i32 %10
}